target datalayout = "e-m:e-p270:32:32-p271:32:32-p272:64:64-i64:64-i128:128-f80:128-n8:16:32:64-S128"
target triple = "x86_64-pc-linux-gnu"

%struct.GLFWimage = type { i32, i32, ptr }
%struct._GLFWcursorWayland = type { ptr, ptr, ptr, i32, i32, i32, i32, i32 }
%struct._GLFWcursor = type { ptr, %struct._GLFWcursorWayland, %struct._GLFWcursorX11 }
%struct._GLFWcursorX11 = type { i64 }

; Function Attrs: nounwind uwtable
define hidden i32 @_glfwCreateCursorWayland(ptr noundef %0, ptr noundef %1, i32 noundef %2, i32 noundef %3) #0 {
  %5 = alloca i32, align 4
  %6 = alloca ptr, align 8
  %7 = alloca ptr, align 8
  %8 = alloca i32, align 4
  %9 = alloca i32, align 4
  store ptr %0, ptr %6, align 8, !tbaa !327
  store ptr %1, ptr %7, align 8, !tbaa !255
  store i32 %2, ptr %8, align 4, !tbaa !129
  store i32 %3, ptr %9, align 4, !tbaa !129
  %10 = load ptr, ptr %7, align 8, !tbaa !255
  %11 = call ptr @createShmBuffer(ptr noundef %10)
  %12 = load ptr, ptr %6, align 8, !tbaa !327
  %13 = getelementptr inbounds nuw %struct._GLFWcursor, ptr %12, i32 0, i32 1
  %14 = getelementptr inbounds nuw %struct._GLFWcursorWayland, ptr %13, i32 0, i32 2
  store ptr %11, ptr %14, align 8, !tbaa !351
  %15 = load ptr, ptr %6, align 8, !tbaa !327
  %16 = getelementptr inbounds nuw %struct._GLFWcursor, ptr %15, i32 0, i32 1
  %17 = getelementptr inbounds nuw %struct._GLFWcursorWayland, ptr %16, i32 0, i32 2
  %18 = load ptr, ptr %17, align 8, !tbaa !351
  %19 = icmp ne ptr %18, null
  br i1 %19, label %21, label %20

20:                                               ; preds = %4
  store i32 0, ptr %5, align 4
  br label %42

21:                                               ; preds = %4
  %22 = load ptr, ptr %7, align 8, !tbaa !255
  %23 = getelementptr inbounds nuw %struct.GLFWimage, ptr %22, i32 0, i32 0
  %24 = load i32, ptr %23, align 8, !tbaa !295
  %25 = load ptr, ptr %6, align 8, !tbaa !327
  %26 = getelementptr inbounds nuw %struct._GLFWcursor, ptr %25, i32 0, i32 1
  %27 = getelementptr inbounds nuw %struct._GLFWcursorWayland, ptr %26, i32 0, i32 3
  store i32 %24, ptr %27, align 8, !tbaa !354
  %28 = load ptr, ptr %7, align 8, !tbaa !255
  %29 = getelementptr inbounds nuw %struct.GLFWimage, ptr %28, i32 0, i32 1
  %30 = load i32, ptr %29, align 4, !tbaa !297
  %31 = load ptr, ptr %6, align 8, !tbaa !327
  %32 = getelementptr inbounds nuw %struct._GLFWcursor, ptr %31, i32 0, i32 1
  %33 = getelementptr inbounds nuw %struct._GLFWcursorWayland, ptr %32, i32 0, i32 4
  store i32 %30, ptr %33, align 4, !tbaa !355
  %34 = load i32, ptr %8, align 4, !tbaa !129
  %35 = load ptr, ptr %6, align 8, !tbaa !327
  %36 = getelementptr inbounds nuw %struct._GLFWcursor, ptr %35, i32 0, i32 1
  %37 = getelementptr inbounds nuw %struct._GLFWcursorWayland, ptr %36, i32 0, i32 5
  store i32 %34, ptr %37, align 8, !tbaa !356
  %38 = load i32, ptr %9, align 4, !tbaa !129
  %39 = load ptr, ptr %6, align 8, !tbaa !327
  %40 = getelementptr inbounds nuw %struct._GLFWcursor, ptr %39, i32 0, i32 1
  %41 = getelementptr inbounds nuw %struct._GLFWcursorWayland, ptr %40, i32 0, i32 6
  store i32 %38, ptr %41, align 4, !tbaa !357
  store i32 1, ptr %5, align 4
  br label %42

42:                                               ; preds = %21, %20
  %43 = load i32, ptr %5, align 4
  ret i32 %43
}