; Function Attrs: nounwind uwtable
define hidden range(i32 0, 2) i32 @_glfwCreateCursorWayland(ptr noundef writeonly captures(none) initializes((24, 32)) %0, ptr noundef readonly captures(none) %1, i32 noundef %2, i32 noundef %3) local_unnamed_addr #0 {
  %5 = tail call fastcc ptr @createShmBuffer(ptr noundef %1)
  %6 = getelementptr inbounds nuw i8, ptr %0, i64 24
  store ptr %5, ptr %6, align 8, !tbaa !315
  %.not = icmp eq ptr %5, null
  br i1 %.not, label %15, label %7

7:                                                ; preds = %4
  %8 = load i32, ptr %1, align 8, !tbaa !257
  %9 = getelementptr inbounds nuw i8, ptr %0, i64 32
  store i32 %8, ptr %9, align 8, !tbaa !316
  %10 = getelementptr inbounds nuw i8, ptr %1, i64 4
  %11 = load i32, ptr %10, align 4, !tbaa !259
  %12 = getelementptr inbounds nuw i8, ptr %0, i64 36
  store i32 %11, ptr %12, align 4, !tbaa !317
  %13 = getelementptr inbounds nuw i8, ptr %0, i64 40
  store i32 %2, ptr %13, align 8, !tbaa !318
  %14 = getelementptr inbounds nuw i8, ptr %0, i64 44
  store i32 %3, ptr %14, align 4, !tbaa !319
  br label %15

15:                                               ; preds = %4, %7
  %.0 = phi i32 [ 1, %7 ], [ 0, %4 ]
  ret i32 %.0
}